; ModuleID = 'source-C-CXX/31/2158.c'
source_filename = "source-C-CXX/31/2158.c"
target datalayout = "e-m:e-p270:32:32-p271:32:32-p272:64:64-i64:64-f80:128-n8:16:32:64-S128"
target triple = "x86_64-pc-linux-gnu"

%struct._IO_FILE = type { i32, i8*, i8*, i8*, i8*, i8*, i8*, i8*, i8*, i8*, i8*, i8*, %struct._IO_marker*, %struct._IO_FILE*, i32, i32, i64, i16, i8, [1 x i8], i8*, i64, %struct._IO_codecvt*, %struct._IO_wide_data*, %struct._IO_FILE*, i8*, i64, i32, [20 x i8] }
%struct._IO_marker = type opaque
%struct._IO_codecvt = type opaque
%struct._IO_wide_data = type opaque

@.str = private unnamed_addr constant [3 x i8] c"%d\00", align 1
@.str.1 = private unnamed_addr constant [5 x i8] c"%s%s\00", align 1
@stdin = external local_unnamed_addr global %struct._IO_FILE*, align 8
@stdout = external local_unnamed_addr global %struct._IO_FILE*, align 8

; Function Attrs: nofree nounwind sspstrong uwtable
define dso_local void @main() local_unnamed_addr #0 {
  %1 = alloca i32, align 4
  %2 = alloca [100 x [100 x i8]], align 16
  %3 = alloca [100 x [100 x i8]], align 16
  %4 = bitcast i32* %1 to i8*
  call void @llvm.lifetime.start.p0i8(i64 4, i8* nonnull %4) #4
  %5 = getelementptr inbounds [100 x [100 x i8]], [100 x [100 x i8]]* %2, i64 0, i64 0, i64 0
  call void @llvm.lifetime.start.p0i8(i64 10000, i8* nonnull %5) #4
  %6 = getelementptr inbounds [100 x [100 x i8]], [100 x [100 x i8]]* %3, i64 0, i64 0, i64 0
  call void @llvm.lifetime.start.p0i8(i64 10000, i8* nonnull %6) #4
  %7 = call i32 (i8*, ...) @__isoc99_scanf(i8* getelementptr inbounds ([3 x i8], [3 x i8]* @.str, i64 0, i64 0), i32* nonnull %1)
  %8 = load i32, i32* %1, align 4, !tbaa !5
  %9 = icmp slt i32 %8, 1
  br i1 %9, label %94, label %12

10:                                               ; preds = %12
  %11 = icmp slt i32 %20, 1
  br i1 %11, label %94, label %23

12:                                               ; preds = %0, %12
  %13 = phi i64 [ %19, %12 ], [ 1, %0 ]
  %14 = getelementptr inbounds [100 x [100 x i8]], [100 x [100 x i8]]* %2, i64 0, i64 %13, i64 0
  %15 = getelementptr inbounds [100 x [100 x i8]], [100 x [100 x i8]]* %3, i64 0, i64 %13, i64 0
  %16 = call i32 (i8*, ...) @__isoc99_scanf(i8* getelementptr inbounds ([5 x i8], [5 x i8]* @.str.1, i64 0, i64 0), i8* nonnull %14, i8* nonnull %15)
  %17 = load %struct._IO_FILE*, %struct._IO_FILE** @stdin, align 8, !tbaa !9
  %18 = call i32 @getc(%struct._IO_FILE* %17) #4
  %19 = add nuw nsw i64 %13, 1
  %20 = load i32, i32* %1, align 4, !tbaa !5
  %21 = sext i32 %20 to i64
  %22 = icmp slt i64 %13, %21
  br i1 %22, label %12, label %10, !llvm.loop !11

23:                                               ; preds = %10, %87
  %24 = phi i64 [ %90, %87 ], [ 1, %10 ]
  %25 = getelementptr inbounds [100 x [100 x i8]], [100 x [100 x i8]]* %2, i64 0, i64 %24, i64 0
  %26 = call i64 @strlen(i8* noundef nonnull %25) #5
  %27 = trunc i64 %26 to i32
  %28 = getelementptr inbounds [100 x [100 x i8]], [100 x [100 x i8]]* %3, i64 0, i64 %24, i64 0
  %29 = call i64 @strlen(i8* noundef nonnull %28) #5
  %30 = trunc i64 %29 to i32
  %31 = icmp sgt i32 %30, 0
  br i1 %31, label %32, label %65

32:                                               ; preds = %23
  %33 = shl i64 %26, 32
  %34 = add i64 %33, -4294967296
  %35 = ashr exact i64 %34, 32
  %36 = and i64 %29, 4294967295
  br label %37

37:                                               ; preds = %32, %62
  %38 = phi i64 [ 0, %32 ], [ %63, %62 ]
  %39 = sub nsw i64 %35, %38
  %40 = getelementptr inbounds [100 x [100 x i8]], [100 x [100 x i8]]* %2, i64 0, i64 %24, i64 %39
  %41 = load i8, i8* %40, align 1, !tbaa !13
  %42 = add i8 %41, 48
  %43 = xor i64 %38, -1
  %44 = add i64 %29, %43
  %45 = shl i64 %44, 32
  %46 = ashr exact i64 %45, 32
  %47 = getelementptr inbounds [100 x [100 x i8]], [100 x [100 x i8]]* %3, i64 0, i64 %24, i64 %46
  %48 = load i8, i8* %47, align 1, !tbaa !13
  %49 = sub i8 %42, %48
  store i8 %49, i8* %40, align 1, !tbaa !13
  %50 = icmp slt i8 %49, 48
  br i1 %50, label %51, label %62

51:                                               ; preds = %37, %51
  %52 = phi i64 [ %56, %51 ], [ %38, %37 ]
  %53 = phi i8 [ %60, %51 ], [ %49, %37 ]
  %54 = phi i8* [ %58, %51 ], [ %40, %37 ]
  %55 = add nsw i8 %53, 10
  store i8 %55, i8* %54, align 1, !tbaa !13
  %56 = add nuw nsw i64 %52, 1
  %57 = sub nsw i64 %35, %56
  %58 = getelementptr inbounds [100 x [100 x i8]], [100 x [100 x i8]]* %2, i64 0, i64 %24, i64 %57
  %59 = load i8, i8* %58, align 1, !tbaa !13
  %60 = add i8 %59, -1
  store i8 %60, i8* %58, align 1, !tbaa !13
  %61 = icmp slt i8 %60, 48
  br i1 %61, label %51, label %62, !llvm.loop !14

62:                                               ; preds = %51, %37
  %63 = add nuw nsw i64 %38, 1
  %64 = icmp eq i64 %63, %36
  br i1 %64, label %65, label %37, !llvm.loop !15

65:                                               ; preds = %62, %23
  br label %66

66:                                               ; preds = %65, %66
  %67 = phi i64 [ %71, %66 ], [ 0, %65 ]
  %68 = getelementptr inbounds [100 x [100 x i8]], [100 x [100 x i8]]* %2, i64 0, i64 %24, i64 %67
  %69 = load i8, i8* %68, align 1, !tbaa !13
  %70 = icmp eq i8 %69, 48
  %71 = add nuw i64 %67, 1
  br i1 %70, label %66, label %72, !llvm.loop !16

72:                                               ; preds = %66
  %73 = trunc i64 %67 to i32
  %74 = icmp slt i32 %73, %27
  br i1 %74, label %75, label %87

75:                                               ; preds = %72
  %76 = and i64 %67, 4294967295
  br label %77

77:                                               ; preds = %75, %77
  %78 = phi i64 [ %76, %75 ], [ %84, %77 ]
  %79 = getelementptr inbounds [100 x [100 x i8]], [100 x [100 x i8]]* %2, i64 0, i64 %24, i64 %78
  %80 = load i8, i8* %79, align 1, !tbaa !13
  %81 = sext i8 %80 to i32
  %82 = load %struct._IO_FILE*, %struct._IO_FILE** @stdout, align 8, !tbaa !9
  %83 = call i32 @putc(i32 %81, %struct._IO_FILE* %82) #4
  %84 = add nuw nsw i64 %78, 1
  %85 = trunc i64 %84 to i32
  %86 = icmp eq i32 %85, %27
  br i1 %86, label %87, label %77, !llvm.loop !17

87:                                               ; preds = %77, %72
  %88 = load %struct._IO_FILE*, %struct._IO_FILE** @stdout, align 8, !tbaa !9
  %89 = call i32 @putc(i32 10, %struct._IO_FILE* %88) #4
  %90 = add nuw nsw i64 %24, 1
  %91 = load i32, i32* %1, align 4, !tbaa !5
  %92 = sext i32 %91 to i64
  %93 = icmp slt i64 %24, %92
  br i1 %93, label %23, label %94, !llvm.loop !18

94:                                               ; preds = %87, %0, %10
  call void @llvm.lifetime.end.p0i8(i64 10000, i8* nonnull %6) #4
  call void @llvm.lifetime.end.p0i8(i64 10000, i8* nonnull %5) #4
  call void @llvm.lifetime.end.p0i8(i64 4, i8* nonnull %4) #4
  ret void
}

; Function Attrs: argmemonly mustprogress nofree nosync nounwind willreturn
declare void @llvm.lifetime.start.p0i8(i64 immarg, i8* nocapture) #1

; Function Attrs: nofree nounwind
declare noundef i32 @__isoc99_scanf(i8* nocapture noundef readonly, ...) local_unnamed_addr #2

; Function Attrs: argmemonly mustprogress nofree nounwind readonly willreturn
declare i64 @strlen(i8* nocapture) local_unnamed_addr #3

; Function Attrs: argmemonly mustprogress nofree nosync nounwind willreturn
declare void @llvm.lifetime.end.p0i8(i64 immarg, i8* nocapture) #1

; Function Attrs: nofree nounwind
declare noundef i32 @getc(%struct._IO_FILE* nocapture noundef) local_unnamed_addr #2

; Function Attrs: nofree nounwind
declare noundef i32 @putc(i32 noundef, %struct._IO_FILE* nocapture noundef) local_unnamed_addr #2


!llvm.module.flags = !{!0, !1, !2, !3}
!llvm.ident = !{!4}

!0 = !{i32 1, !"wchar_size", i32 4}
!1 = !{i32 7, !"PIC Level", i32 2}
!2 = !{i32 7, !"PIE Level", i32 2}
!3 = !{i32 7, !"uwtable", i32 1}
!4 = !{!"clang version 13.0.0"}
!5 = !{!6, !6, i64 0}
!6 = !{!"int", !7, i64 0}
!7 = !{!"omnipotent char", !8, i64 0}
!8 = !{!"Simple C/C++ TBAA"}
!9 = !{!10, !10, i64 0}
!10 = !{!"any pointer", !7, i64 0}
!11 = distinct !{!11, !12}
!12 = !{!"llvm.loop.mustprogress"}
!13 = !{!7, !7, i64 0}
!14 = distinct !{!14, !12}
!15 = distinct !{!15, !12}
!16 = distinct !{!16, !12}
!17 = distinct !{!17, !12}
!18 = distinct !{!18, !12}
